target datalayout = "e-m:e-p270:32:32-p271:32:32-p272:64:64-i64:64-i128:128-f80:128-n8:16:32:64-S128"
target triple = "x86_64-unknown-linux-gnu"

@.str.14 = private unnamed_addr constant [8 x i8] c"INITIAL\00", align 1
@.str.15 = private unnamed_addr constant [5 x i8] c"IDLE\00", align 1
@.str.16 = private unnamed_addr constant [18 x i8] c"GOT_BATCH_NO_PIPE\00", align 1
@.str.17 = private unnamed_addr constant [10 x i8] c"GOT_BATCH\00", align 1
@.str.18 = private unnamed_addr constant [15 x i8] c"PUSHED_TO_PIPE\00", align 1
@.str.19 = private unnamed_addr constant [16 x i8] c"FORWARDED_BATCH\00", align 1
@.str.20 = private unnamed_addr constant [16 x i8] c"BATCH_COMPLETED\00", align 1
@.str.21 = private unnamed_addr constant [10 x i8] c"CANCELLED\00", align 1
@.str.22 = private unnamed_addr constant [29 x i8] c"CANCELLED_BUT_NOT_YET_POLLED\00", align 1
@.str.23 = private unnamed_addr constant [24 x i8] c"CANCELLED_BUT_NO_STATUS\00", align 1
@.str.24 = private unnamed_addr constant [8 x i8] c"UNKNOWN\00", align 1

; Function Attrs: mustprogress nounwind uwtable
define noundef ptr @_ZN9grpc_core21promise_filter_detail12BaseCallData11SendMessage11StateStringENS2_5StateE(i8 noundef zeroext %state) #5 align 2 {
entry:
  %retval = alloca ptr, align 8
  %state.addr = alloca i8, align 1
  store i8 %state, ptr %state.addr, align 1
  %0 = load i8, ptr %state.addr, align 1
  switch i8 %0, label %sw.epilog [
    i8 0, label %sw.bb
    i8 1, label %sw.bb1
    i8 2, label %sw.bb2
    i8 3, label %sw.bb3
    i8 4, label %sw.bb4
    i8 5, label %sw.bb5
    i8 6, label %sw.bb6
    i8 8, label %sw.bb7
    i8 7, label %sw.bb8
    i8 9, label %sw.bb9
  ]

sw.bb:                                            ; preds = %entry
  store ptr @.str.14, ptr %retval, align 8
  br label %return

sw.bb1:                                           ; preds = %entry
  store ptr @.str.15, ptr %retval, align 8
  br label %return

sw.bb2:                                           ; preds = %entry
  store ptr @.str.16, ptr %retval, align 8
  br label %return

sw.bb3:                                           ; preds = %entry
  store ptr @.str.17, ptr %retval, align 8
  br label %return

sw.bb4:                                           ; preds = %entry
  store ptr @.str.18, ptr %retval, align 8
  br label %return

sw.bb5:                                           ; preds = %entry
  store ptr @.str.19, ptr %retval, align 8
  br label %return

sw.bb6:                                           ; preds = %entry
  store ptr @.str.20, ptr %retval, align 8
  br label %return

sw.bb7:                                           ; preds = %entry
  store ptr @.str.21, ptr %retval, align 8
  br label %return

sw.bb8:                                           ; preds = %entry
  store ptr @.str.22, ptr %retval, align 8
  br label %return

sw.bb9:                                           ; preds = %entry
  store ptr @.str.23, ptr %retval, align 8
  br label %return

sw.epilog:                                        ; preds = %entry
  store ptr @.str.24, ptr %retval, align 8
  br label %return

return:                                           ; preds = %sw.epilog, %sw.bb9, %sw.bb8, %sw.bb7, %sw.bb6, %sw.bb5, %sw.bb4, %sw.bb3, %sw.bb2, %sw.bb1, %sw.bb
  %1 = load ptr, ptr %retval, align 8
  ret ptr %1
}