; Function Attrs: mustprogress nofree norecurse nosync nounwind willreturn memory(none) uwtable
define noundef nonnull ptr @_ZN9grpc_core21promise_filter_detail12BaseCallData11SendMessage11StateStringENS2_5StateE(i8 noundef zeroext %state) local_unnamed_addr #7 align 2 {
entry:
  %0 = icmp ult i8 %state, 10
  br i1 %0, label %switch.lookup, label %return

switch.lookup:                                    ; preds = %entry
  %1 = zext nneg i8 %state to i64
  %switch.gep = getelementptr inbounds [10 x ptr], ptr @switch.table._ZN9grpc_core21promise_filter_detail12BaseCallData11SendMessage7GotPipeINS_10PipeSenderISt10unique_ptrINS_7MessageENS_5Arena13PooledDeleterEEEEEEvPT_, i64 0, i64 %1
  %switch.load = load ptr, ptr %switch.gep, align 8
  br label %return

return:                                           ; preds = %entry, %switch.lookup
  %retval.0 = phi ptr [ %switch.load, %switch.lookup ], [ @.str.24, %entry ]
  ret ptr %retval.0
}